target datalayout = "e-m:e-p270:32:32-p271:32:32-p272:64:64-i64:64-i128:128-f80:128-n8:16:32:64-S128"
target triple = "x86_64-pc-linux-gnu"

%struct.hb_glyph_info_t = type { i32, i32, i32, %union._hb_var_int_t, %union._hb_var_int_t }
%union._hb_var_int_t = type { i32 }
%"struct.OT::IntType" = type { %struct.BEInt }
%struct.BEInt = type { [2 x i8] }
%"struct.OT::OffsetTo" = type { %"struct.OT::Offset" }
%"struct.OT::Offset" = type { %"struct.OT::IntType" }

@_hb_NullPool = external constant [80 x i64], align 16

; Function Attrs: mustprogress nounwind uwtable
define linkonce_odr hidden noundef nonnull align 1 dereferenceable(10) ptr @_ZN4NullIN2OT6Layout6Common8CoverageEE8get_nullEv() #2 comdat align 2 {
  ret ptr @_hb_NullPool
}

; Function Attrs: mustprogress nounwind uwtable
define linkonce_odr hidden noundef zeroext i16 @_ZNK5BEIntItLi2EEcvtEv(ptr noundef nonnull align 1 dereferenceable(2) %0) #2 comdat align 2 {
  %2 = alloca ptr, align 8
  store ptr %0, ptr %2, align 8
  %3 = load ptr, ptr %2, align 8
  %4 = getelementptr inbounds %struct.BEInt, ptr %3, i32 0, i32 0
  %5 = getelementptr inbounds [2 x i8], ptr %4, i64 0, i64 0
  %6 = load i8, ptr %5, align 1
  %7 = zext i8 %6 to i32
  %8 = shl i32 %7, 8
  %9 = getelementptr inbounds %struct.BEInt, ptr %3, i32 0, i32 0
  %10 = getelementptr inbounds [2 x i8], ptr %9, i64 0, i64 1
  %11 = load i8, ptr %10, align 1
  %12 = zext i8 %11 to i32
  %13 = add nsw i32 %8, %12
  %14 = trunc i32 %13 to i16
  ret i16 %14
}

; Function Attrs: mustprogress uwtable
define linkonce_odr hidden noundef nonnull align 1 dereferenceable(10) ptr @_ZN10NullHelperIN2OT6Layout6Common8CoverageEE8get_nullEv() #0 comdat align 2 {
  %1 = call noundef nonnull align 1 dereferenceable(10) ptr @_ZN4NullIN2OT6Layout6Common8CoverageEE8get_nullEv()
  ret ptr %1
}

; Function Attrs: mustprogress nounwind uwtable
define internal noundef nonnull align 1 dereferenceable(10) ptr @_ZL14StructAtOffsetIKN2OT6Layout6Common8CoverageEERKT_PKvj(ptr noundef %0, i32 noundef %1) #2 {
  %3 = alloca ptr, align 8
  %4 = alloca i32, align 4
  store ptr %0, ptr %3, align 8
  store i32 %1, ptr %4, align 4
  %5 = load ptr, ptr %3, align 8
  %6 = load i32, ptr %4, align 4
  %7 = zext i32 %6 to i64
  %8 = getelementptr inbounds i8, ptr %5, i64 %7
  ret ptr %8
}

; Function Attrs: mustprogress nounwind uwtable
define linkonce_odr hidden noundef i32 @_ZNK2OT7IntTypeItLj2EEcvjEv(ptr noundef nonnull align 1 dereferenceable(2) %0) #2 comdat align 2 {
  %2 = alloca ptr, align 8
  store ptr %0, ptr %2, align 8
  %3 = load ptr, ptr %2, align 8
  %4 = getelementptr inbounds %"struct.OT::IntType", ptr %3, i32 0, i32 0
  %5 = call noundef zeroext i16 @_ZNK5BEIntItLi2EEcvtEv(ptr noundef nonnull align 1 dereferenceable(2) %4)
  %6 = zext i16 %5 to i32
  ret i32 %6
}

; Function Attrs: mustprogress uwtable
define linkonce_odr hidden noundef ptr @_ZN2OT12_hb_has_nullINS_6Layout6Common8CoverageELb1EE8get_nullEv() #0 comdat align 2 {
  %1 = call noundef nonnull align 1 dereferenceable(10) ptr @_ZN10NullHelperIN2OT6Layout6Common8CoverageEE8get_nullEv()
  ret ptr %1
}

; Function Attrs: mustprogress nounwind uwtable
define linkonce_odr hidden noundef zeroext i1 @_ZNK2OT6OffsetINS_7IntTypeItLj2EEELb1EE7is_nullEv(ptr noundef nonnull align 1 dereferenceable(2) %0) #2 comdat align 2 {
  %2 = alloca ptr, align 8
  store ptr %0, ptr %2, align 8
  %3 = load ptr, ptr %2, align 8
  %4 = call noundef i32 @_ZNK2OT7IntTypeItLj2EEcvjEv(ptr noundef nonnull align 1 dereferenceable(2) %3)
  %5 = icmp eq i32 0, %4
  ret i1 %5
}

; Function Attrs: mustprogress nounwind uwtable
define linkonce_odr hidden void @_ZN5BEIntItLi2EEC2Et(ptr noundef nonnull align 1 dereferenceable(2) %0, i16 noundef zeroext %1) unnamed_addr #2 comdat align 2 {
  %3 = alloca ptr, align 8
  %4 = alloca i16, align 2
  store ptr %0, ptr %3, align 8
  store i16 %1, ptr %4, align 2
  %5 = load ptr, ptr %3, align 8
  %6 = getelementptr inbounds %struct.BEInt, ptr %5, i32 0, i32 0
  %7 = load i16, ptr %4, align 2
  %8 = zext i16 %7 to i32
  %9 = ashr i32 %8, 8
  %10 = and i32 %9, 255
  %11 = trunc i32 %10 to i8
  store i8 %11, ptr %6, align 1
  %12 = getelementptr inbounds i8, ptr %6, i64 1
  %13 = load i16, ptr %4, align 2
  %14 = zext i16 %13 to i32
  %15 = and i32 %14, 255
  %16 = trunc i32 %15 to i8
  store i8 %16, ptr %12, align 1
  ret void
}

; Function Attrs: mustprogress uwtable
define linkonce_odr hidden noundef nonnull align 1 dereferenceable(10) ptr @_ZNK2OT8OffsetToINS_6Layout6Common8CoverageENS_7IntTypeItLj2EEELb1EEclEPKv(ptr noundef nonnull align 1 dereferenceable(2) %0, ptr noundef %1) #0 comdat align 2 {
  %3 = alloca ptr, align 8
  %4 = alloca ptr, align 8
  %5 = alloca ptr, align 8
  store ptr %0, ptr %4, align 8
  store ptr %1, ptr %5, align 8
  %6 = load ptr, ptr %4, align 8
  %7 = call noundef zeroext i1 @_ZNK2OT6OffsetINS_7IntTypeItLj2EEELb1EE7is_nullEv(ptr noundef nonnull align 1 dereferenceable(2) %6)
  br i1 %7, label %8, label %10

8:                                                ; preds = %2
  %9 = call noundef ptr @_ZN2OT12_hb_has_nullINS_6Layout6Common8CoverageELb1EE8get_nullEv()
  store ptr %9, ptr %3, align 8
  br label %14

10:                                               ; preds = %2
  %11 = load ptr, ptr %5, align 8
  %12 = call noundef i32 @_ZNK2OT7IntTypeItLj2EEcvjEv(ptr noundef nonnull align 1 dereferenceable(2) %6)
  %13 = call noundef nonnull align 1 dereferenceable(10) ptr @_ZL14StructAtOffsetIKN2OT6Layout6Common8CoverageEERKT_PKvj(ptr noundef %11, i32 noundef %12)
  store ptr %13, ptr %3, align 8
  br label %14

14:                                               ; preds = %10, %8
  %15 = load ptr, ptr %3, align 8
  ret ptr %15
}

; Function Attrs: mustprogress uwtable
define linkonce_odr hidden noundef nonnull align 1 dereferenceable(2) ptr @_ZN2OT7IntTypeItLj2EEaSEt(ptr noundef nonnull align 1 dereferenceable(2) %0, i16 noundef zeroext %1) #0 comdat align 2 {
  %3 = alloca ptr, align 8
  %4 = alloca i16, align 2
  %5 = alloca %struct.BEInt, align 1
  store ptr %0, ptr %3, align 8
  store i16 %1, ptr %4, align 2
  %6 = load ptr, ptr %3, align 8
  %7 = load i16, ptr %4, align 2
  call void @_ZN5BEIntItLi2EEC2Et(ptr noundef nonnull align 1 dereferenceable(2) %5, i16 noundef zeroext %7)
  %8 = getelementptr inbounds %"struct.OT::IntType", ptr %6, i32 0, i32 0
  call void @llvm.memcpy.p0.p0.i64(ptr align 1 %8, ptr align 1 %5, i64 2, i1 false)
  ret ptr %6
}

; Function Attrs: mustprogress uwtable
define linkonce_odr hidden noundef nonnull align 1 dereferenceable(10) ptr @_ZN2OTplIPKvTnPN12hb_enable_ifIXsr3std14is_convertibleIKT_S2_EE5valueEvE4typeELPv0EEERKNS_6Layout6Common8CoverageERS5_RKNS_8OffsetToISC_NS_7IntTypeItLj2EEELb1EEE(ptr noundef nonnull align 8 dereferenceable(8) %0, ptr noundef nonnull align 1 dereferenceable(2) %1) #0 comdat {
  %3 = alloca ptr, align 8
  %4 = alloca ptr, align 8
  store ptr %0, ptr %3, align 8
  store ptr %1, ptr %4, align 8
  %5 = load ptr, ptr %4, align 8
  %6 = load ptr, ptr %3, align 8
  %7 = load ptr, ptr %6, align 8
  %8 = call noundef nonnull align 1 dereferenceable(10) ptr @_ZNK2OT8OffsetToINS_6Layout6Common8CoverageENS_7IntTypeItLj2EEELb1EEclEPKv(ptr noundef nonnull align 1 dereferenceable(2) %5, ptr noundef %7)
  ret ptr %8
}

; Function Attrs: mustprogress uwtable
define linkonce_odr hidden noundef nonnull align 1 dereferenceable(2) ptr @_ZN2OT8OffsetToINS_6Layout6Common8CoverageENS_7IntTypeItLj2EEELb1EEaSEt(ptr noundef nonnull align 1 dereferenceable(2) %0, i16 noundef zeroext %1) #0 comdat align 2 {
  %3 = alloca ptr, align 8
  %4 = alloca i16, align 2
  store ptr %0, ptr %3, align 8
  store i16 %1, ptr %4, align 2
  %5 = load ptr, ptr %3, align 8
  %6 = load i16, ptr %4, align 2
  %7 = call noundef nonnull align 1 dereferenceable(2) ptr @_ZN2OT7IntTypeItLj2EEaSEt(ptr noundef nonnull align 1 dereferenceable(2) %5, i16 noundef zeroext %6)
  ret ptr %5
}

; Function Attrs: mustprogress uwtable
define internal noundef zeroext i1 @_ZN2OTL14match_coverageER15hb_glyph_info_tjPKv(ptr noundef nonnull align 4 dereferenceable(20) %0, i32 noundef %1, ptr noundef %2) #0 {
  %4 = alloca ptr, align 8
  %5 = alloca i32, align 4
  %6 = alloca ptr, align 8
  %7 = alloca %"struct.OT::OffsetTo", align 1
  store ptr %0, ptr %4, align 8
  store i32 %1, ptr %5, align 4
  store ptr %2, ptr %6, align 8
  %8 = load i32, ptr %5, align 4
  %9 = trunc i32 %8 to i16
  %10 = call noundef nonnull align 1 dereferenceable(2) ptr @_ZN2OT8OffsetToINS_6Layout6Common8CoverageENS_7IntTypeItLj2EEELb1EEaSEt(ptr noundef nonnull align 1 dereferenceable(2) %7, i16 noundef zeroext %9)
  %11 = call noundef nonnull align 1 dereferenceable(10) ptr @_ZN2OTplIPKvTnPN12hb_enable_ifIXsr3std14is_convertibleIKT_S2_EE5valueEvE4typeELPv0EEERKNS_6Layout6Common8CoverageERS5_RKNS_8OffsetToISC_NS_7IntTypeItLj2EEELb1EEE(ptr noundef nonnull align 8 dereferenceable(8) %6, ptr noundef nonnull align 1 dereferenceable(2) %7)
  %12 = load ptr, ptr %4, align 8
  %13 = getelementptr inbounds %struct.hb_glyph_info_t, ptr %12, i32 0, i32 0
  %14 = load i32, ptr %13, align 4
  %15 = call noundef i32 @_ZNK2OT6Layout6Common8Coverage12get_coverageEj(ptr noundef nonnull align 1 dereferenceable(10) %11, i32 noundef %14)
  %16 = icmp ne i32 %15, -1
  ret i1 %16
}