; Function Attrs: mustprogress uwtable
define internal noundef zeroext i1 @_ZN2OTL14match_coverageER15hb_glyph_info_tjPKv(ptr nocapture noundef nonnull readonly align 4 dereferenceable(20) %0, i32 noundef %1, ptr noundef %2) #4 {
  %4 = and i32 %1, 65535
  %5 = icmp eq i32 %4, 0
  %6 = zext nneg i32 %4 to i64
  %7 = getelementptr inbounds i8, ptr %2, i64 %6
  %.0.i.i = select i1 %5, ptr @_hb_NullPool, ptr %7
  %8 = load i32, ptr %0, align 4
  %9 = tail call noundef i32 @_ZNK2OT6Layout6Common8Coverage12get_coverageEj(ptr noundef nonnull align 1 dereferenceable(10) %.0.i.i, i32 noundef %8)
  %10 = icmp ne i32 %9, -1
  ret i1 %10
}